target datalayout = "e-m:e-p270:32:32-p271:32:32-p272:64:64-i64:64-i128:128-f80:128-n8:16:32:64-S128"
target triple = "x86_64-pc-linux-gnu"

@.str.7 = private unnamed_addr constant [36 x i8] c"plugins/lighttable/metadata/%s_flag\00", align 1
@.str.11 = private unnamed_addr constant [5 x i8] c"tags\00", align 1
@.str.14 = private unnamed_addr constant [34 x i8] c"ui_last/import_last_tags_imported\00", align 1

; Function Attrs: nounwind uwtable
define internal void @_import_metadata_toggled(ptr noundef %0, ptr noundef %1) #0 {
  %3 = alloca ptr, align 8
  %4 = alloca ptr, align 8
  %5 = alloca ptr, align 8
  %6 = alloca i32, align 4
  %7 = alloca ptr, align 8
  %8 = alloca i32, align 4
  %9 = alloca i32, align 4
  %10 = alloca i32, align 4
  store ptr %0, ptr %3, align 8, !tbaa !11
  store ptr %1, ptr %4, align 8, !tbaa !6
  call void @llvm.lifetime.start.p0(i64 8, ptr %5) #7
  %11 = load ptr, ptr %3, align 8, !tbaa !11
  %12 = call ptr @gtk_widget_get_name(ptr noundef %11)
  store ptr %12, ptr %5, align 8, !tbaa !65
  %13 = load ptr, ptr %5, align 8, !tbaa !65
  %14 = call i32 @g_strcmp0(ptr noundef %13, ptr noundef @.str.11)
  %15 = icmp ne i32 %14, 0
  br i1 %15, label %16, label %43

16:                                               ; preds = %2
  call void @llvm.lifetime.start.p0(i64 4, ptr %6) #7
  %17 = load ptr, ptr %5, align 8, !tbaa !65
  %18 = call i32 @dt_metadata_get_keyid_by_name(ptr noundef %17)
  store i32 %18, ptr %6, align 4, !tbaa !61
  %19 = load i32, ptr %6, align 4, !tbaa !61
  %20 = icmp ne i32 %19, -1
  br i1 %20, label %21, label %42

21:                                               ; preds = %16
  call void @llvm.lifetime.start.p0(i64 8, ptr %7) #7
  %22 = load ptr, ptr %5, align 8, !tbaa !65
  %23 = call noalias ptr (ptr, ...) @g_strdup_printf(ptr noundef @.str.7, ptr noundef %22)
  store ptr %23, ptr %7, align 8, !tbaa !65
  call void @llvm.lifetime.start.p0(i64 4, ptr %8) #7
  %24 = load ptr, ptr %3, align 8, !tbaa !11
  %25 = call i64 @gtk_toggle_button_get_type() #8
  %26 = call ptr @g_type_check_instance_cast(ptr noundef %24, i64 noundef %25)
  %27 = call i32 @gtk_toggle_button_get_active(ptr noundef %26)
  store i32 %27, ptr %8, align 4, !tbaa !61
  call void @llvm.lifetime.start.p0(i64 4, ptr %9) #7
  %28 = load ptr, ptr %7, align 8, !tbaa !65
  %29 = call i32 @dt_conf_get_int(ptr noundef %28)
  store i32 %29, ptr %9, align 4, !tbaa !61
  %30 = load ptr, ptr %7, align 8, !tbaa !65
  %31 = load i32, ptr %8, align 4, !tbaa !61
  %32 = icmp ne i32 %31, 0
  br i1 %32, label %33, label %36

33:                                               ; preds = %21
  %34 = load i32, ptr %9, align 4, !tbaa !61
  %35 = or i32 %34, 4
  br label %39

36:                                               ; preds = %21
  %37 = load i32, ptr %9, align 4, !tbaa !61
  %38 = and i32 %37, -5
  br label %39

39:                                               ; preds = %36, %33
  %40 = phi i32 [ %35, %33 ], [ %38, %36 ]
  call void @dt_conf_set_int(ptr noundef %30, i32 noundef %40)
  %41 = load ptr, ptr %7, align 8, !tbaa !65
  call void @g_free(ptr noundef %41)
  call void @llvm.lifetime.end.p0(i64 4, ptr %9) #7
  call void @llvm.lifetime.end.p0(i64 4, ptr %8) #7
  call void @llvm.lifetime.end.p0(i64 8, ptr %7) #7
  br label %42

42:                                               ; preds = %39, %16
  call void @llvm.lifetime.end.p0(i64 4, ptr %6) #7
  br label %49

43:                                               ; preds = %2
  call void @llvm.lifetime.start.p0(i64 4, ptr %10) #7
  %44 = load ptr, ptr %3, align 8, !tbaa !11
  %45 = call i64 @gtk_toggle_button_get_type() #8
  %46 = call ptr @g_type_check_instance_cast(ptr noundef %44, i64 noundef %45)
  %47 = call i32 @gtk_toggle_button_get_active(ptr noundef %46)
  store i32 %47, ptr %10, align 4, !tbaa !61
  %48 = load i32, ptr %10, align 4, !tbaa !61
  call void @dt_conf_set_bool(ptr noundef @.str.14, i32 noundef %48)
  call void @llvm.lifetime.end.p0(i64 4, ptr %10) #7
  br label %49

49:                                               ; preds = %43, %42
  call void @llvm.lifetime.end.p0(i64 8, ptr %5) #7
  ret void
}