; Function Attrs: nounwind uwtable
define internal void @_import_metadata_toggled(ptr noundef %0, ptr readnone captures(none) %1) #0 {
  %3 = tail call ptr @gtk_widget_get_name(ptr noundef %0) #10
  %4 = tail call i32 @g_strcmp0(ptr noundef %3, ptr noundef nonnull @.str.11) #10
  %.not = icmp eq i32 %4, 0
  br i1 %.not, label %15, label %5

5:                                                ; preds = %2
  %6 = tail call i32 @dt_metadata_get_keyid_by_name(ptr noundef %3) #10
  %.not13 = icmp eq i32 %6, -1
  br i1 %.not13, label %19, label %7

7:                                                ; preds = %5
  %8 = tail call noalias ptr (ptr, ...) @g_strdup_printf(ptr noundef nonnull @.str.7, ptr noundef %3) #10
  %9 = tail call i64 @gtk_toggle_button_get_type() #11
  %10 = tail call ptr @g_type_check_instance_cast(ptr noundef %0, i64 noundef %9) #10
  %11 = tail call i32 @gtk_toggle_button_get_active(ptr noundef %10) #10
  %12 = tail call i32 @dt_conf_get_int(ptr noundef %8) #10
  %.not14 = icmp eq i32 %11, 0
  %13 = and i32 %12, -5
  %masksel = select i1 %.not14, i32 0, i32 4
  %14 = or disjoint i32 %13, %masksel
  tail call void @dt_conf_set_int(ptr noundef %8, i32 noundef %14) #10
  tail call void @g_free(ptr noundef %8) #10
  br label %19

15:                                               ; preds = %2
  %16 = tail call i64 @gtk_toggle_button_get_type() #11
  %17 = tail call ptr @g_type_check_instance_cast(ptr noundef %0, i64 noundef %16) #10
  %18 = tail call i32 @gtk_toggle_button_get_active(ptr noundef %17) #10
  tail call void @dt_conf_set_bool(ptr noundef nonnull @.str.14, i32 noundef %18) #10
  br label %19

19:                                               ; preds = %5, %7, %15
  ret void
}